target datalayout = "e-m:e-p270:32:32-p271:32:32-p272:64:64-i64:64-i128:128-f80:128-n8:16:32:64-S128"
target triple = "x86_64-unknown-linux-gnu"

%"class.icu_75::NFSubstitution" = type { %"class.icu_75::UObject", i32, ptr, ptr }
%"class.icu_75::UObject" = type { ptr }
%"class.icu_75::UnicodeString" = type { %"class.icu_75::Replaceable", %"union.icu_75::UnicodeString::StackBufferOrFields" }
%"class.icu_75::Replaceable" = type { %"class.icu_75::UObject" }
%"union.icu_75::UnicodeString::StackBufferOrFields" = type { %struct.anon.0, [32 x i8] }
%struct.anon.0 = type { i16, i32, i32, ptr }
%struct.anon = type { i16, [27 x i16] }
%"class.icu_75::Formattable" = type { %"class.icu_75::UObject", %union.anon, ptr, ptr, i32, %"class.icu_75::UnicodeString" }
%union.anon = type { %struct.anon.1 }
%struct.anon.1 = type { ptr, i32 }

@_ZTVN6icu_757UObjectE = external unnamed_addr constant { [5 x ptr] }, align 8
@_ZTVN6icu_7513UnicodeStringE = external unnamed_addr constant { [13 x ptr] }, align 8
@_ZTVN6icu_7511ReplaceableE = external unnamed_addr constant { [13 x ptr] }, align 8

; Function Attrs: mustprogress nounwind uwtable
define linkonce_odr noundef i32 @_ZNK6icu_7513UnicodeString14getShortLengthEv(ptr noundef nonnull align 8 dereferenceable(64) %this) #0 comdat align 2 {
entry:
  %this.addr = alloca ptr, align 8
  store ptr %this, ptr %this.addr, align 8
  %this1 = load ptr, ptr %this.addr, align 8
  %fUnion = getelementptr inbounds %"class.icu_75::UnicodeString", ptr %this1, i32 0, i32 1
  %fLengthAndFlags = getelementptr inbounds %struct.anon.0, ptr %fUnion, i32 0, i32 0
  %0 = load i16, ptr %fLengthAndFlags, align 8
  %conv = sext i16 %0 to i32
  %shr = ashr i32 %conv, 5
  ret i32 %shr
}

; Function Attrs: mustprogress nounwind uwtable
define linkonce_odr noundef signext i8 @_ZNK6icu_7513UnicodeString14hasShortLengthEv(ptr noundef nonnull align 8 dereferenceable(64) %this) #0 comdat align 2 {
entry:
  %this.addr = alloca ptr, align 8
  store ptr %this, ptr %this.addr, align 8
  %this1 = load ptr, ptr %this.addr, align 8
  %fUnion = getelementptr inbounds %"class.icu_75::UnicodeString", ptr %this1, i32 0, i32 1
  %fLengthAndFlags = getelementptr inbounds %struct.anon.0, ptr %fUnion, i32 0, i32 0
  %0 = load i16, ptr %fLengthAndFlags, align 8
  %conv = sext i16 %0 to i32
  %cmp = icmp sge i32 %conv, 0
  %conv2 = zext i1 %cmp to i8
  ret i8 %conv2
}

; Function Attrs: mustprogress nounwind uwtable
define linkonce_odr void @_ZN6icu_757UObjectC2Ev(ptr noundef nonnull align 8 dereferenceable(8) %this) unnamed_addr #0 comdat align 2 {
entry:
  %this.addr = alloca ptr, align 8
  store ptr %this, ptr %this.addr, align 8
  %this1 = load ptr, ptr %this.addr, align 8
  store ptr getelementptr inbounds ({ [5 x ptr] }, ptr @_ZTVN6icu_757UObjectE, i32 0, i32 0, i32 2), ptr %this1, align 8
  ret void
}

; Function Attrs: mustprogress uwtable
define linkonce_odr noundef i32 @_ZNK6icu_7513UnicodeString6lengthEv(ptr noundef nonnull align 8 dereferenceable(64) %this) #2 comdat align 2 {
entry:
  %this.addr = alloca ptr, align 8
  store ptr %this, ptr %this.addr, align 8
  %this1 = load ptr, ptr %this.addr, align 8
  %call = call noundef signext i8 @_ZNK6icu_7513UnicodeString14hasShortLengthEv(ptr noundef nonnull align 8 dereferenceable(64) %this1)
  %tobool = icmp ne i8 %call, 0
  br i1 %tobool, label %cond.true, label %cond.false

cond.true:                                        ; preds = %entry
  %call2 = call noundef i32 @_ZNK6icu_7513UnicodeString14getShortLengthEv(ptr noundef nonnull align 8 dereferenceable(64) %this1)
  br label %cond.end

cond.false:                                       ; preds = %entry
  %fUnion = getelementptr inbounds %"class.icu_75::UnicodeString", ptr %this1, i32 0, i32 1
  %fLength = getelementptr inbounds %struct.anon.0, ptr %fUnion, i32 0, i32 1
  %0 = load i32, ptr %fLength, align 4
  br label %cond.end

cond.end:                                         ; preds = %cond.false, %cond.true
  %cond = phi i32 [ %call2, %cond.true ], [ %0, %cond.false ]
  ret i32 %cond
}

; Function Attrs: mustprogress nounwind uwtable
define linkonce_odr void @_ZN6icu_7511ReplaceableC2Ev(ptr noundef nonnull align 8 dereferenceable(8) %this) unnamed_addr #0 comdat align 2 {
entry:
  %this.addr = alloca ptr, align 8
  store ptr %this, ptr %this.addr, align 8
  %this1 = load ptr, ptr %this.addr, align 8
  call void @_ZN6icu_757UObjectC2Ev(ptr noundef nonnull align 8 dereferenceable(8) %this1) #6
  store ptr getelementptr inbounds ({ [13 x ptr] }, ptr @_ZTVN6icu_7511ReplaceableE, i32 0, i32 0, i32 2), ptr %this1, align 8
  ret void
}

; Function Attrs: mustprogress uwtable
define linkonce_odr noundef nonnull align 8 dereferenceable(64) ptr @_ZN6icu_7513UnicodeString6insertEiRKS0_(ptr noundef nonnull align 8 dereferenceable(64) %this, i32 noundef %start, ptr noundef nonnull align 8 dereferenceable(64) %srcText) #2 comdat align 2 {
entry:
  %this.addr = alloca ptr, align 8
  %start.addr = alloca i32, align 4
  %srcText.addr = alloca ptr, align 8
  store ptr %this, ptr %this.addr, align 8
  store i32 %start, ptr %start.addr, align 4
  store ptr %srcText, ptr %srcText.addr, align 8
  %this1 = load ptr, ptr %this.addr, align 8
  %0 = load i32, ptr %start.addr, align 4
  %1 = load ptr, ptr %srcText.addr, align 8
  %2 = load ptr, ptr %srcText.addr, align 8
  %call = call noundef i32 @_ZNK6icu_7513UnicodeString6lengthEv(ptr noundef nonnull align 8 dereferenceable(64) %2)
  %call2 = call noundef nonnull align 8 dereferenceable(64) ptr @_ZN6icu_7513UnicodeString9doReplaceEiiRKS0_ii(ptr noundef nonnull align 8 dereferenceable(64) %this1, i32 noundef %0, i32 noundef 0, ptr noundef nonnull align 8 dereferenceable(64) %1, i32 noundef 0, i32 noundef %call)
  ret ptr %call2
}

; Function Attrs: mustprogress uwtable
define linkonce_odr void @_ZN6icu_7513UnicodeStringC2Ev(ptr noundef nonnull align 8 dereferenceable(64) %this) unnamed_addr #2 comdat align 2 {
entry:
  %this.addr = alloca ptr, align 8
  store ptr %this, ptr %this.addr, align 8
  %this1 = load ptr, ptr %this.addr, align 8
  call void @_ZN6icu_7511ReplaceableC2Ev(ptr noundef nonnull align 8 dereferenceable(8) %this1)
  store ptr getelementptr inbounds ({ [13 x ptr] }, ptr @_ZTVN6icu_7513UnicodeStringE, i32 0, i32 0, i32 2), ptr %this1, align 8
  %fUnion2 = getelementptr inbounds %"class.icu_75::UnicodeString", ptr %this1, i32 0, i32 1
  %fLengthAndFlags = getelementptr inbounds %struct.anon, ptr %fUnion2, i32 0, i32 0
  store i16 2, ptr %fLengthAndFlags, align 8
  ret void
}

; Function Attrs: mustprogress uwtable
define void @_ZNK6icu_7514NFSubstitution14doSubstitutionElRNS_13UnicodeStringEiiR10UErrorCode(ptr noundef nonnull align 8 dereferenceable(32) %this, i64 noundef %number, ptr noundef nonnull align 8 dereferenceable(64) %toInsertInto, i32 noundef %_pos, i32 noundef %recursionCount, ptr noundef nonnull align 4 dereferenceable(4) %status) unnamed_addr #2 align 2 personality ptr @__gxx_personality_v0 {
entry:
  %this.addr = alloca ptr, align 8
  %number.addr = alloca i64, align 8
  %toInsertInto.addr = alloca ptr, align 8
  %_pos.addr = alloca i32, align 4
  %recursionCount.addr = alloca i32, align 4
  %status.addr = alloca ptr, align 8
  %numberToFormat = alloca double, align 8
  %temp = alloca %"class.icu_75::UnicodeString", align 8
  %ref.tmp = alloca %"class.icu_75::Formattable", align 8
  %exn.slot = alloca ptr, align 8
  %ehselector.slot = alloca i32, align 4
  %numberToFormat24 = alloca i64, align 8
  %temp28 = alloca %"class.icu_75::UnicodeString", align 8
  %ref.tmp30 = alloca %"class.icu_75::Formattable", align 8
  store ptr %this, ptr %this.addr, align 8
  store i64 %number, ptr %number.addr, align 8
  store ptr %toInsertInto, ptr %toInsertInto.addr, align 8
  store i32 %_pos, ptr %_pos.addr, align 4
  store i32 %recursionCount, ptr %recursionCount.addr, align 4
  store ptr %status, ptr %status.addr, align 8
  %this1 = load ptr, ptr %this.addr, align 8
  %ruleSet = getelementptr inbounds %"class.icu_75::NFSubstitution", ptr %this1, i32 0, i32 2
  %0 = load ptr, ptr %ruleSet, align 8
  %cmp = icmp ne ptr %0, null
  br i1 %cmp, label %if.then, label %if.else

if.then:                                          ; preds = %entry
  %ruleSet2 = getelementptr inbounds %"class.icu_75::NFSubstitution", ptr %this1, i32 0, i32 2
  %1 = load ptr, ptr %ruleSet2, align 8
  %2 = load i64, ptr %number.addr, align 8
  %vtable = load ptr, ptr %this1, align 8
  %vfn = getelementptr inbounds ptr, ptr %vtable, i64 8
  %3 = load ptr, ptr %vfn, align 8
  %call = call noundef i64 %3(ptr noundef nonnull align 8 dereferenceable(32) %this1, i64 noundef %2)
  %4 = load ptr, ptr %toInsertInto.addr, align 8
  %5 = load i32, ptr %_pos.addr, align 4
  %pos = getelementptr inbounds %"class.icu_75::NFSubstitution", ptr %this1, i32 0, i32 1
  %6 = load i32, ptr %pos, align 8
  %add = add nsw i32 %5, %6
  %7 = load i32, ptr %recursionCount.addr, align 4
  %8 = load ptr, ptr %status.addr, align 8
  call void @_ZNK6icu_759NFRuleSet6formatElRNS_13UnicodeStringEiiR10UErrorCode(ptr noundef nonnull align 8 dereferenceable(163) %1, i64 noundef %call, ptr noundef nonnull align 8 dereferenceable(64) %4, i32 noundef %add, i32 noundef %7, ptr noundef nonnull align 4 dereferenceable(4) %8)
  br label %if.end44

if.else:                                          ; preds = %entry
  %numberFormat = getelementptr inbounds %"class.icu_75::NFSubstitution", ptr %this1, i32 0, i32 3
  %9 = load ptr, ptr %numberFormat, align 8
  %cmp3 = icmp ne ptr %9, null
  br i1 %cmp3, label %if.then4, label %if.end43

if.then4:                                         ; preds = %if.else
  %10 = load i64, ptr %number.addr, align 8
  %cmp5 = icmp sle i64 %10, 9007199254740991
  br i1 %cmp5, label %if.then6, label %if.else23

if.then6:                                         ; preds = %if.then4
  %11 = load i64, ptr %number.addr, align 8
  %conv = sitofp i64 %11 to double
  %vtable7 = load ptr, ptr %this1, align 8
  %vfn8 = getelementptr inbounds ptr, ptr %vtable7, i64 9
  %12 = load ptr, ptr %vfn8, align 8
  %call9 = call noundef double %12(ptr noundef nonnull align 8 dereferenceable(32) %this1, double noundef %conv)
  store double %call9, ptr %numberToFormat, align 8
  %numberFormat10 = getelementptr inbounds %"class.icu_75::NFSubstitution", ptr %this1, i32 0, i32 3
  %13 = load ptr, ptr %numberFormat10, align 8
  %call11 = call noundef i32 @_ZNK6icu_7512NumberFormat24getMaximumFractionDigitsEv(ptr noundef nonnull align 8 dereferenceable(356) %13)
  %cmp12 = icmp eq i32 %call11, 0
  br i1 %cmp12, label %if.then13, label %if.end

if.then13:                                        ; preds = %if.then6
  %14 = load double, ptr %numberToFormat, align 8
  %call14 = call double @uprv_floor_75(double noundef %14)
  store double %call14, ptr %numberToFormat, align 8
  br label %if.end

if.end:                                           ; preds = %if.then13, %if.then6
  call void @_ZN6icu_7513UnicodeStringC2Ev(ptr noundef nonnull align 8 dereferenceable(64) %temp)
  %numberFormat15 = getelementptr inbounds %"class.icu_75::NFSubstitution", ptr %this1, i32 0, i32 3
  %15 = load ptr, ptr %numberFormat15, align 8
  %16 = load double, ptr %numberToFormat, align 8
  invoke void @_ZN6icu_7511FormattableC1Ed(ptr noundef nonnull align 8 dereferenceable(112) %ref.tmp, double noundef %16)
          to label %invoke.cont unwind label %lpad

invoke.cont:                                      ; preds = %if.end
  %17 = load ptr, ptr %status.addr, align 8
  %call18 = invoke noundef nonnull align 8 dereferenceable(64) ptr @_ZNK6icu_756Format6formatERKNS_11FormattableERNS_13UnicodeStringER10UErrorCode(ptr noundef nonnull align 8 dereferenceable(322) %15, ptr noundef nonnull align 8 dereferenceable(112) %ref.tmp, ptr noundef nonnull align 8 dereferenceable(64) %temp, ptr noundef nonnull align 4 dereferenceable(4) %17)
          to label %invoke.cont17 unwind label %lpad16

invoke.cont17:                                    ; preds = %invoke.cont
  call void @_ZN6icu_7511FormattableD1Ev(ptr noundef nonnull align 8 dereferenceable(112) %ref.tmp) #6
  %18 = load ptr, ptr %toInsertInto.addr, align 8
  %19 = load i32, ptr %_pos.addr, align 4
  %pos19 = getelementptr inbounds %"class.icu_75::NFSubstitution", ptr %this1, i32 0, i32 1
  %20 = load i32, ptr %pos19, align 8
  %add20 = add nsw i32 %19, %20
  %call22 = invoke noundef nonnull align 8 dereferenceable(64) ptr @_ZN6icu_7513UnicodeString6insertEiRKS0_(ptr noundef nonnull align 8 dereferenceable(64) %18, i32 noundef %add20, ptr noundef nonnull align 8 dereferenceable(64) %temp)
          to label %invoke.cont21 unwind label %lpad

invoke.cont21:                                    ; preds = %invoke.cont17
  call void @_ZN6icu_7513UnicodeStringD1Ev(ptr noundef nonnull align 8 dereferenceable(64) %temp) #6
  br label %if.end42

lpad:                                             ; preds = %invoke.cont17, %if.end
  %21 = landingpad { ptr, i32 }
          cleanup
  %22 = extractvalue { ptr, i32 } %21, 0
  store ptr %22, ptr %exn.slot, align 8
  %23 = extractvalue { ptr, i32 } %21, 1
  store i32 %23, ptr %ehselector.slot, align 4
  br label %ehcleanup

lpad16:                                           ; preds = %invoke.cont
  %24 = landingpad { ptr, i32 }
          cleanup
  %25 = extractvalue { ptr, i32 } %24, 0
  store ptr %25, ptr %exn.slot, align 8
  %26 = extractvalue { ptr, i32 } %24, 1
  store i32 %26, ptr %ehselector.slot, align 4
  call void @_ZN6icu_7511FormattableD1Ev(ptr noundef nonnull align 8 dereferenceable(112) %ref.tmp) #6
  br label %ehcleanup

ehcleanup:                                        ; preds = %lpad16, %lpad
  call void @_ZN6icu_7513UnicodeStringD1Ev(ptr noundef nonnull align 8 dereferenceable(64) %temp) #6
  br label %eh.resume

if.else23:                                        ; preds = %if.then4
  %27 = load i64, ptr %number.addr, align 8
  %vtable25 = load ptr, ptr %this1, align 8
  %vfn26 = getelementptr inbounds ptr, ptr %vtable25, i64 8
  %28 = load ptr, ptr %vfn26, align 8
  %call27 = call noundef i64 %28(ptr noundef nonnull align 8 dereferenceable(32) %this1, i64 noundef %27)
  store i64 %call27, ptr %numberToFormat24, align 8
  call void @_ZN6icu_7513UnicodeStringC2Ev(ptr noundef nonnull align 8 dereferenceable(64) %temp28)
  %numberFormat29 = getelementptr inbounds %"class.icu_75::NFSubstitution", ptr %this1, i32 0, i32 3
  %29 = load ptr, ptr %numberFormat29, align 8
  %30 = load i64, ptr %numberToFormat24, align 8
  invoke void @_ZN6icu_7511FormattableC1El(ptr noundef nonnull align 8 dereferenceable(112) %ref.tmp30, i64 noundef %30)
          to label %invoke.cont32 unwind label %lpad31

invoke.cont32:                                    ; preds = %if.else23
  %31 = load ptr, ptr %status.addr, align 8
  %call35 = invoke noundef nonnull align 8 dereferenceable(64) ptr @_ZNK6icu_756Format6formatERKNS_11FormattableERNS_13UnicodeStringER10UErrorCode(ptr noundef nonnull align 8 dereferenceable(322) %29, ptr noundef nonnull align 8 dereferenceable(112) %ref.tmp30, ptr noundef nonnull align 8 dereferenceable(64) %temp28, ptr noundef nonnull align 4 dereferenceable(4) %31)
          to label %invoke.cont34 unwind label %lpad33

invoke.cont34:                                    ; preds = %invoke.cont32
  call void @_ZN6icu_7511FormattableD1Ev(ptr noundef nonnull align 8 dereferenceable(112) %ref.tmp30) #6
  %32 = load ptr, ptr %toInsertInto.addr, align 8
  %33 = load i32, ptr %_pos.addr, align 4
  %pos37 = getelementptr inbounds %"class.icu_75::NFSubstitution", ptr %this1, i32 0, i32 1
  %34 = load i32, ptr %pos37, align 8
  %add38 = add nsw i32 %33, %34
  %call40 = invoke noundef nonnull align 8 dereferenceable(64) ptr @_ZN6icu_7513UnicodeString6insertEiRKS0_(ptr noundef nonnull align 8 dereferenceable(64) %32, i32 noundef %add38, ptr noundef nonnull align 8 dereferenceable(64) %temp28)
          to label %invoke.cont39 unwind label %lpad31

invoke.cont39:                                    ; preds = %invoke.cont34
  call void @_ZN6icu_7513UnicodeStringD1Ev(ptr noundef nonnull align 8 dereferenceable(64) %temp28) #6
  br label %if.end42

lpad31:                                           ; preds = %invoke.cont34, %if.else23
  %35 = landingpad { ptr, i32 }
          cleanup
  %36 = extractvalue { ptr, i32 } %35, 0
  store ptr %36, ptr %exn.slot, align 8
  %37 = extractvalue { ptr, i32 } %35, 1
  store i32 %37, ptr %ehselector.slot, align 4
  br label %ehcleanup41

lpad33:                                           ; preds = %invoke.cont32
  %38 = landingpad { ptr, i32 }
          cleanup
  %39 = extractvalue { ptr, i32 } %38, 0
  store ptr %39, ptr %exn.slot, align 8
  %40 = extractvalue { ptr, i32 } %38, 1
  store i32 %40, ptr %ehselector.slot, align 4
  call void @_ZN6icu_7511FormattableD1Ev(ptr noundef nonnull align 8 dereferenceable(112) %ref.tmp30) #6
  br label %ehcleanup41

ehcleanup41:                                      ; preds = %lpad33, %lpad31
  call void @_ZN6icu_7513UnicodeStringD1Ev(ptr noundef nonnull align 8 dereferenceable(64) %temp28) #6
  br label %eh.resume

if.end42:                                         ; preds = %invoke.cont39, %invoke.cont21
  br label %if.end43

if.end43:                                         ; preds = %if.end42, %if.else
  br label %if.end44

if.end44:                                         ; preds = %if.end43, %if.then
  ret void

eh.resume:                                        ; preds = %ehcleanup41, %ehcleanup
  %exn = load ptr, ptr %exn.slot, align 8
  %sel = load i32, ptr %ehselector.slot, align 4
  %lpad.val = insertvalue { ptr, i32 } poison, ptr %exn, 0
  %lpad.val45 = insertvalue { ptr, i32 } %lpad.val, i32 %sel, 1
  resume { ptr, i32 } %lpad.val45
}