; Function Attrs: mustprogress uwtable
define void @_ZNK6icu_7514NFSubstitution14doSubstitutionElRNS_13UnicodeStringEiiR10UErrorCode(ptr noundef nonnull align 8 dereferenceable(32) %this, i64 noundef %number, ptr noundef nonnull align 8 dereferenceable(64) %toInsertInto, i32 noundef %_pos, i32 noundef %recursionCount, ptr noundef nonnull align 4 dereferenceable(4) %status) unnamed_addr #2 align 2 personality ptr @__gxx_personality_v0 {
entry:
  %temp = alloca %"class.icu_75::UnicodeString", align 8
  %ref.tmp = alloca %"class.icu_75::Formattable", align 8
  %temp28 = alloca %"class.icu_75::UnicodeString", align 8
  %ref.tmp30 = alloca %"class.icu_75::Formattable", align 8
  %ruleSet = getelementptr inbounds i8, ptr %this, i64 16
  %0 = load ptr, ptr %ruleSet, align 8
  %cmp.not = icmp eq ptr %0, null
  br i1 %cmp.not, label %if.else, label %if.then

if.then:                                          ; preds = %entry
  %vtable = load ptr, ptr %this, align 8
  %vfn = getelementptr inbounds i8, ptr %vtable, i64 64
  %1 = load ptr, ptr %vfn, align 8
  %call = tail call noundef i64 %1(ptr noundef nonnull align 8 dereferenceable(32) %this, i64 noundef %number)
  %pos = getelementptr inbounds i8, ptr %this, i64 8
  %2 = load i32, ptr %pos, align 8
  %add = add nsw i32 %2, %_pos
  tail call void @_ZNK6icu_759NFRuleSet6formatElRNS_13UnicodeStringEiiR10UErrorCode(ptr noundef nonnull align 8 dereferenceable(163) %0, i64 noundef %call, ptr noundef nonnull align 8 dereferenceable(64) %toInsertInto, i32 noundef %add, i32 noundef %recursionCount, ptr noundef nonnull align 4 dereferenceable(4) %status)
  br label %if.end44

if.else:                                          ; preds = %entry
  %numberFormat = getelementptr inbounds i8, ptr %this, i64 24
  %3 = load ptr, ptr %numberFormat, align 8
  %cmp3.not = icmp eq ptr %3, null
  br i1 %cmp3.not, label %if.end44, label %if.then4

if.then4:                                         ; preds = %if.else
  %cmp5 = icmp slt i64 %number, 9007199254740992
  br i1 %cmp5, label %if.then6, label %if.else23

if.then6:                                         ; preds = %if.then4
  %conv = sitofp i64 %number to double
  %vtable7 = load ptr, ptr %this, align 8
  %vfn8 = getelementptr inbounds i8, ptr %vtable7, i64 72
  %4 = load ptr, ptr %vfn8, align 8
  %call9 = tail call noundef double %4(ptr noundef nonnull align 8 dereferenceable(32) %this, double noundef %conv)
  %5 = load ptr, ptr %numberFormat, align 8
  %call11 = tail call noundef i32 @_ZNK6icu_7512NumberFormat24getMaximumFractionDigitsEv(ptr noundef nonnull align 8 dereferenceable(356) %5)
  %cmp12 = icmp eq i32 %call11, 0
  br i1 %cmp12, label %if.then13, label %if.end

if.then13:                                        ; preds = %if.then6
  %call14 = tail call double @uprv_floor_75(double noundef %call9)
  br label %if.end

if.end:                                           ; preds = %if.then13, %if.then6
  %numberToFormat.0 = phi double [ %call14, %if.then13 ], [ %call9, %if.then6 ]
  store ptr getelementptr inbounds ({ [13 x ptr] }, ptr @_ZTVN6icu_7513UnicodeStringE, i64 0, i32 0, i64 2), ptr %temp, align 8
  %fUnion2.i = getelementptr inbounds i8, ptr %temp, i64 8
  store i16 2, ptr %fUnion2.i, align 8
  %6 = load ptr, ptr %numberFormat, align 8
  invoke void @_ZN6icu_7511FormattableC1Ed(ptr noundef nonnull align 8 dereferenceable(112) %ref.tmp, double noundef %numberToFormat.0)
          to label %invoke.cont unwind label %lpad

invoke.cont:                                      ; preds = %if.end
  %call18 = invoke noundef nonnull align 8 dereferenceable(64) ptr @_ZNK6icu_756Format6formatERKNS_11FormattableERNS_13UnicodeStringER10UErrorCode(ptr noundef nonnull align 8 dereferenceable(322) %6, ptr noundef nonnull align 8 dereferenceable(112) %ref.tmp, ptr noundef nonnull align 8 dereferenceable(64) %temp, ptr noundef nonnull align 4 dereferenceable(4) %status)
          to label %invoke.cont17 unwind label %lpad16

invoke.cont17:                                    ; preds = %invoke.cont
  call void @_ZN6icu_7511FormattableD1Ev(ptr noundef nonnull align 8 dereferenceable(112) %ref.tmp) #11
  %pos19 = getelementptr inbounds i8, ptr %this, i64 8
  %7 = load i32, ptr %pos19, align 8
  %add20 = add nsw i32 %7, %_pos
  %8 = load i16, ptr %fUnion2.i, align 8
  %cmp.i.i.i = icmp slt i16 %8, 0
  %9 = ashr i16 %8, 5
  %shr.i.i.i = sext i16 %9 to i32
  %fLength.i.i = getelementptr inbounds i8, ptr %temp, i64 12
  %10 = load i32, ptr %fLength.i.i, align 4
  %cond.i.i = select i1 %cmp.i.i.i, i32 %10, i32 %shr.i.i.i
  %call2.i15 = invoke noundef nonnull align 8 dereferenceable(64) ptr @_ZN6icu_7513UnicodeString9doReplaceEiiRKS0_ii(ptr noundef nonnull align 8 dereferenceable(64) %toInsertInto, i32 noundef %add20, i32 noundef 0, ptr noundef nonnull align 8 dereferenceable(64) %temp, i32 noundef 0, i32 noundef %cond.i.i)
          to label %invoke.cont21 unwind label %lpad

invoke.cont21:                                    ; preds = %invoke.cont17
  call void @_ZN6icu_7513UnicodeStringD1Ev(ptr noundef nonnull align 8 dereferenceable(64) %temp) #11
  br label %if.end44

lpad:                                             ; preds = %invoke.cont17, %if.end
  %11 = landingpad { ptr, i32 }
          cleanup
  br label %eh.resume

lpad16:                                           ; preds = %invoke.cont
  %12 = landingpad { ptr, i32 }
          cleanup
  call void @_ZN6icu_7511FormattableD1Ev(ptr noundef nonnull align 8 dereferenceable(112) %ref.tmp) #11
  br label %eh.resume

if.else23:                                        ; preds = %if.then4
  %vtable25 = load ptr, ptr %this, align 8
  %vfn26 = getelementptr inbounds i8, ptr %vtable25, i64 64
  %13 = load ptr, ptr %vfn26, align 8
  %call27 = tail call noundef i64 %13(ptr noundef nonnull align 8 dereferenceable(32) %this, i64 noundef %number)
  store ptr getelementptr inbounds ({ [13 x ptr] }, ptr @_ZTVN6icu_7513UnicodeStringE, i64 0, i32 0, i64 2), ptr %temp28, align 8
  %fUnion2.i16 = getelementptr inbounds i8, ptr %temp28, i64 8
  store i16 2, ptr %fUnion2.i16, align 8
  %14 = load ptr, ptr %numberFormat, align 8
  invoke void @_ZN6icu_7511FormattableC1El(ptr noundef nonnull align 8 dereferenceable(112) %ref.tmp30, i64 noundef %call27)
          to label %invoke.cont32 unwind label %lpad31

invoke.cont32:                                    ; preds = %if.else23
  %call35 = invoke noundef nonnull align 8 dereferenceable(64) ptr @_ZNK6icu_756Format6formatERKNS_11FormattableERNS_13UnicodeStringER10UErrorCode(ptr noundef nonnull align 8 dereferenceable(322) %14, ptr noundef nonnull align 8 dereferenceable(112) %ref.tmp30, ptr noundef nonnull align 8 dereferenceable(64) %temp28, ptr noundef nonnull align 4 dereferenceable(4) %status)
          to label %invoke.cont34 unwind label %lpad33

invoke.cont34:                                    ; preds = %invoke.cont32
  call void @_ZN6icu_7511FormattableD1Ev(ptr noundef nonnull align 8 dereferenceable(112) %ref.tmp30) #11
  %pos37 = getelementptr inbounds i8, ptr %this, i64 8
  %15 = load i32, ptr %pos37, align 8
  %add38 = add nsw i32 %15, %_pos
  %16 = load i16, ptr %fUnion2.i16, align 8
  %cmp.i.i.i18 = icmp slt i16 %16, 0
  %17 = ashr i16 %16, 5
  %shr.i.i.i19 = sext i16 %17 to i32
  %fLength.i.i20 = getelementptr inbounds i8, ptr %temp28, i64 12
  %18 = load i32, ptr %fLength.i.i20, align 4
  %cond.i.i21 = select i1 %cmp.i.i.i18, i32 %18, i32 %shr.i.i.i19
  %call2.i22 = invoke noundef nonnull align 8 dereferenceable(64) ptr @_ZN6icu_7513UnicodeString9doReplaceEiiRKS0_ii(ptr noundef nonnull align 8 dereferenceable(64) %toInsertInto, i32 noundef %add38, i32 noundef 0, ptr noundef nonnull align 8 dereferenceable(64) %temp28, i32 noundef 0, i32 noundef %cond.i.i21)
          to label %invoke.cont39 unwind label %lpad31

invoke.cont39:                                    ; preds = %invoke.cont34
  call void @_ZN6icu_7513UnicodeStringD1Ev(ptr noundef nonnull align 8 dereferenceable(64) %temp28) #11
  br label %if.end44

lpad31:                                           ; preds = %invoke.cont34, %if.else23
  %19 = landingpad { ptr, i32 }
          cleanup
  br label %eh.resume

lpad33:                                           ; preds = %invoke.cont32
  %20 = landingpad { ptr, i32 }
          cleanup
  call void @_ZN6icu_7511FormattableD1Ev(ptr noundef nonnull align 8 dereferenceable(112) %ref.tmp30) #11
  br label %eh.resume

if.end44:                                         ; preds = %if.else, %invoke.cont39, %invoke.cont21, %if.then
  ret void

eh.resume:                                        ; preds = %lpad31, %lpad33, %lpad, %lpad16
  %temp28.sink = phi ptr [ %temp, %lpad16 ], [ %temp, %lpad ], [ %temp28, %lpad33 ], [ %temp28, %lpad31 ]
  %.pn12.pn = phi { ptr, i32 } [ %12, %lpad16 ], [ %11, %lpad ], [ %20, %lpad33 ], [ %19, %lpad31 ]
  call void @_ZN6icu_7513UnicodeStringD1Ev(ptr noundef nonnull align 8 dereferenceable(64) %temp28.sink) #11
  resume { ptr, i32 } %.pn12.pn
}